target datalayout = "e-m:e-p270:32:32-p271:32:32-p272:64:64-i64:64-i128:128-f80:128-n8:16:32:64-S128"
target triple = "x86_64-pc-linux-gnu"

; Function Attrs: nounwind uwtable
define internal i32 @ERR_isError(i64 noundef %0) #0 {
  %2 = alloca i64, align 8
  store i64 %0, ptr %2, align 8, !tbaa !29
  %3 = load i64, ptr %2, align 8, !tbaa !29
  %4 = icmp ugt i64 %3, -120
  %5 = zext i1 %4 to i32
  ret i32 %5
}

; Function Attrs: nounwind uwtable
define i32 @HUFv05_isError(i64 noundef %0) #0 {
  %2 = alloca i64, align 8
  store i64 %0, ptr %2, align 8, !tbaa !29
  %3 = load i64, ptr %2, align 8, !tbaa !29
  %4 = call i32 @ERR_isError(i64 noundef %3)
  ret i32 %4
}

; Function Attrs: nounwind uwtable
define i64 @HUFv05_decompress1X4(ptr noundef %0, i64 noundef %1, ptr noundef %2, i64 noundef %3) #0 {
  %5 = alloca i64, align 8
  %6 = alloca ptr, align 8
  %7 = alloca i64, align 8
  %8 = alloca ptr, align 8
  %9 = alloca i64, align 8
  %10 = alloca [4097 x i32], align 16
  %11 = alloca ptr, align 8
  %12 = alloca i64, align 8
  %13 = alloca i32, align 4
  store ptr %0, ptr %6, align 8, !tbaa !12
  store i64 %1, ptr %7, align 8, !tbaa !29
  store ptr %2, ptr %8, align 8, !tbaa !12
  store i64 %3, ptr %9, align 8, !tbaa !29
  call void @llvm.lifetime.start.p0(i64 16388, ptr %10) #11
  call void @llvm.memset.p0.i64(ptr align 16 %10, i8 0, i64 16388, i1 false)
  %14 = getelementptr inbounds <{ i32, [4096 x i32] }>, ptr %10, i32 0, i32 0
  store i32 12, ptr %14, align 16
  call void @llvm.lifetime.start.p0(i64 8, ptr %11) #11
  %15 = load ptr, ptr %8, align 8, !tbaa !12
  store ptr %15, ptr %11, align 8, !tbaa !31
  call void @llvm.lifetime.start.p0(i64 8, ptr %12) #11
  %16 = getelementptr inbounds [4097 x i32], ptr %10, i64 0, i64 0
  %17 = load ptr, ptr %8, align 8, !tbaa !12
  %18 = load i64, ptr %9, align 8, !tbaa !29
  %19 = call i64 @HUFv05_readDTableX4(ptr noundef %16, ptr noundef %17, i64 noundef %18)
  store i64 %19, ptr %12, align 8, !tbaa !29
  %20 = load i64, ptr %12, align 8, !tbaa !29
  %21 = call i32 @HUFv05_isError(i64 noundef %20)
  %22 = icmp ne i32 %21, 0
  br i1 %22, label %23, label %25

23:                                               ; preds = %4
  %24 = load i64, ptr %12, align 8, !tbaa !29
  store i64 %24, ptr %5, align 8
  store i32 1, ptr %13, align 4
  br label %43

25:                                               ; preds = %4
  %26 = load i64, ptr %12, align 8, !tbaa !29
  %27 = load i64, ptr %9, align 8, !tbaa !29
  %28 = icmp uge i64 %26, %27
  br i1 %28, label %29, label %30

29:                                               ; preds = %25
  store i64 -72, ptr %5, align 8
  store i32 1, ptr %13, align 4
  br label %43

30:                                               ; preds = %25
  %31 = load i64, ptr %12, align 8, !tbaa !29
  %32 = load ptr, ptr %11, align 8, !tbaa !31
  %33 = getelementptr inbounds nuw i8, ptr %32, i64 %31
  store ptr %33, ptr %11, align 8, !tbaa !31
  %34 = load i64, ptr %12, align 8, !tbaa !29
  %35 = load i64, ptr %9, align 8, !tbaa !29
  %36 = sub i64 %35, %34
  store i64 %36, ptr %9, align 8, !tbaa !29
  %37 = load ptr, ptr %6, align 8, !tbaa !12
  %38 = load i64, ptr %7, align 8, !tbaa !29
  %39 = load ptr, ptr %11, align 8, !tbaa !31
  %40 = load i64, ptr %9, align 8, !tbaa !29
  %41 = getelementptr inbounds [4097 x i32], ptr %10, i64 0, i64 0
  %42 = call i64 @HUFv05_decompress1X4_usingDTable(ptr noundef %37, i64 noundef %38, ptr noundef %39, i64 noundef %40, ptr noundef %41)
  store i64 %42, ptr %5, align 8
  store i32 1, ptr %13, align 4
  br label %43

43:                                               ; preds = %30, %29, %23
  call void @llvm.lifetime.end.p0(i64 8, ptr %12) #11
  call void @llvm.lifetime.end.p0(i64 8, ptr %11) #11
  call void @llvm.lifetime.end.p0(i64 16388, ptr %10) #11
  %44 = load i64, ptr %5, align 8
  ret i64 %44
}